target datalayout = "e-m:e-p270:32:32-p271:32:32-p272:64:64-i64:64-i128:128-f80:128-n8:16:32:64-S128"
target triple = "x86_64-pc-linux-gnu"

%class.QString = type { %struct.QArrayDataPointer }
%struct.QArrayDataPointer = type { ptr, ptr, i64 }
%class.LayoutPreferencesFrame = type { %class.QFrame, ptr, ptr, ptr, ptr, ptr, ptr, ptr, ptr, ptr, ptr, ptr, ptr }
%class.QFrame = type { %class.QWidget }
%class.QWidget = type { %class.QObject, %class.QPaintDevice.base, ptr }
%class.QObject = type { ptr, %class.QScopedPointer }
%class.QScopedPointer = type { ptr }
%class.QPaintDevice.base = type <{ ptr, i16 }>
%class.Ui_LayoutPreferencesFrame = type { ptr, ptr, ptr, ptr, ptr, ptr, ptr, ptr, ptr, ptr, ptr, ptr, ptr, ptr, ptr, ptr, ptr, ptr, ptr, ptr, ptr, ptr, ptr, ptr, ptr, ptr, ptr, ptr, ptr, ptr, ptr, ptr, ptr, ptr, ptr, ptr, ptr, ptr, ptr, ptr, ptr, ptr, ptr, ptr, ptr, ptr, ptr, ptr, ptr, ptr }
%struct.QArrayData = type { %class.QBasicAtomicInteger, %class.QFlags.6, i64 }
%class.QBasicAtomicInteger = type { %"struct.std::atomic" }
%"struct.std::atomic" = type { %"struct.std::__atomic_base" }
%"struct.std::__atomic_base" = type { i32 }
%class.QFlags.6 = type { i32 }

; Function Attrs: mustprogress nounwind null_pointer_is_valid sspstrong uwtable
define linkonce_odr noundef i32 @_ZNSt13__atomic_baseIiEmmEv(ptr noundef align 4 dereferenceable_or_null(4) %0) #7 comdat align 2 {
  %2 = alloca ptr, align 8
  %3 = alloca i32, align 4
  %4 = alloca i32, align 4
  store ptr %0, ptr %2, align 8
  %5 = load ptr, ptr %2, align 8
  %6 = getelementptr inbounds nuw %"struct.std::__atomic_base", ptr %5, i32 0, i32 0
  store i32 1, ptr %3, align 4
  %7 = load i32, ptr %3, align 4
  %8 = atomicrmw sub ptr %6, i32 %7 seq_cst, align 4
  %9 = sub i32 %8, %7
  store i32 %9, ptr %4, align 4
  %10 = load i32, ptr %4, align 4
  ret i32 %10
}

; Function Attrs: inlinehint mustprogress nounwind null_pointer_is_valid sspstrong uwtable
define linkonce_odr noundef zeroext i1 @_ZN10QAtomicOpsIiE5derefIiEEbRSt6atomicIT_E(ptr noundef align 4 dereferenceable(4) %0) #1 comdat align 2 {
  %2 = alloca ptr, align 8
  store ptr %0, ptr %2, align 8
  %3 = load ptr, ptr %2, align 8
  %4 = call noundef i32 @_ZNSt13__atomic_baseIiEmmEv(ptr noundef align 4 dereferenceable_or_null(4) %3) #16
  %5 = icmp ne i32 %4, 0
  ret i1 %5
}

; Function Attrs: mustprogress nounwind null_pointer_is_valid sspstrong uwtable
define linkonce_odr noundef zeroext i1 @_ZN19QBasicAtomicIntegerIiE5derefEv(ptr noundef align 4 dereferenceable_or_null(4) %0) #7 comdat align 2 {
  %2 = alloca ptr, align 8
  store ptr %0, ptr %2, align 8
  %3 = load ptr, ptr %2, align 8
  %4 = getelementptr inbounds nuw %class.QBasicAtomicInteger, ptr %3, i32 0, i32 0
  %5 = call noundef zeroext i1 @_ZN10QAtomicOpsIiE5derefIiEEbRSt6atomicIT_E(ptr noundef align 4 dereferenceable(4) %4) #16
  ret i1 %5
}

; Function Attrs: mustprogress nounwind null_pointer_is_valid sspstrong uwtable
define linkonce_odr noundef zeroext i1 @_ZN10QArrayData5derefEv(ptr noundef align 8 dereferenceable_or_null(16) %0) #7 comdat align 2 {
  %2 = alloca ptr, align 8
  store ptr %0, ptr %2, align 8
  %3 = load ptr, ptr %2, align 8
  %4 = getelementptr inbounds nuw %struct.QArrayData, ptr %3, i32 0, i32 0
  %5 = call noundef zeroext i1 @_ZN19QBasicAtomicIntegerIiE5derefEv(ptr noundef align 4 dereferenceable_or_null(4) %4) #16
  ret i1 %5
}

; Function Attrs: mustprogress nounwind null_pointer_is_valid sspstrong uwtable
define linkonce_odr void @_ZN15QTypedArrayDataIDsE10deallocateEP10QArrayData(ptr noundef %0) #7 comdat align 2 {
  %2 = alloca ptr, align 8
  store ptr %0, ptr %2, align 8
  %3 = load ptr, ptr %2, align 8
  call void @_ZN10QArrayData10deallocateEPS_xx(ptr noundef %3, i64 noundef 2, i64 noundef 8) #16
  ret void
}

; Function Attrs: mustprogress nounwind null_pointer_is_valid sspstrong uwtable
define linkonce_odr void @_ZN9QtPrivate12QPodArrayOpsIDsE10destroyAllEv(ptr noundef align 8 dereferenceable_or_null(24) %0) #7 comdat align 2 {
  %2 = alloca ptr, align 8
  store ptr %0, ptr %2, align 8
  ret void
}

; Function Attrs: mustprogress nounwind null_pointer_is_valid sspstrong uwtable
define linkonce_odr noundef ptr @_ZN17QArrayDataPointerIDsEptEv(ptr noundef align 8 dereferenceable_or_null(24) %0) #7 comdat align 2 {
  %2 = alloca ptr, align 8
  store ptr %0, ptr %2, align 8
  %3 = load ptr, ptr %2, align 8
  ret ptr %3
}

; Function Attrs: mustprogress nounwind null_pointer_is_valid sspstrong uwtable
define linkonce_odr noundef zeroext i1 @_ZN17QArrayDataPointerIDsE5derefEv(ptr noundef align 8 dereferenceable_or_null(24) %0) #7 comdat align 2 {
  %2 = alloca ptr, align 8
  store ptr %0, ptr %2, align 8
  %3 = load ptr, ptr %2, align 8
  %4 = getelementptr inbounds nuw %struct.QArrayDataPointer, ptr %3, i32 0, i32 0
  %5 = load ptr, ptr %4, align 8
  %6 = icmp ne ptr %5, null
  br i1 %6, label %7, label %11

7:                                                ; preds = %1
  %8 = getelementptr inbounds nuw %struct.QArrayDataPointer, ptr %3, i32 0, i32 0
  %9 = load ptr, ptr %8, align 8
  %10 = call noundef zeroext i1 @_ZN10QArrayData5derefEv(ptr noundef align 8 dereferenceable_or_null(16) %9) #16
  br label %11

11:                                               ; preds = %7, %1
  %12 = phi i1 [ true, %1 ], [ %10, %7 ]
  ret i1 %12
}

; Function Attrs: mustprogress nounwind null_pointer_is_valid sspstrong uwtable
define linkonce_odr void @_ZN17QArrayDataPointerIDsED2Ev(ptr noundef align 8 dereferenceable_or_null(24) %0) unnamed_addr #7 comdat align 2 {
  %2 = alloca ptr, align 8
  store ptr %0, ptr %2, align 8
  %3 = load ptr, ptr %2, align 8
  %4 = call noundef zeroext i1 @_ZN17QArrayDataPointerIDsE5derefEv(ptr noundef align 8 dereferenceable_or_null(24) %3) #16
  br i1 %4, label %9, label %5

5:                                                ; preds = %1
  %6 = call noundef ptr @_ZN17QArrayDataPointerIDsEptEv(ptr noundef align 8 dereferenceable_or_null(24) %3) #16
  call void @_ZN9QtPrivate12QPodArrayOpsIDsE10destroyAllEv(ptr noundef align 8 dereferenceable_or_null(24) %6) #16
  %7 = getelementptr inbounds nuw %struct.QArrayDataPointer, ptr %3, i32 0, i32 0
  %8 = load ptr, ptr %7, align 8
  call void @_ZN15QTypedArrayDataIDsE10deallocateEP10QArrayData(ptr noundef %8) #16
  br label %9

9:                                                ; preds = %5, %1
  ret void
}

; Function Attrs: inlinehint mustprogress nounwind null_pointer_is_valid sspstrong uwtable
define linkonce_odr void @_ZN7QStringD2Ev(ptr noundef align 8 dereferenceable_or_null(24) %0) unnamed_addr #1 comdat align 2 {
  %2 = alloca ptr, align 8
  store ptr %0, ptr %2, align 8
  %3 = load ptr, ptr %2, align 8
  %4 = getelementptr inbounds nuw %class.QString, ptr %3, i32 0, i32 0
  call void @_ZN17QArrayDataPointerIDsED2Ev(ptr noundef align 8 dereferenceable_or_null(24) %4) #16
  ret void
}

; Function Attrs: mustprogress null_pointer_is_valid sspstrong uwtable
define void @_ZN22LayoutPreferencesFrame13updateWidgetsEv(ptr noundef align 8 dereferenceable_or_null(136) %0) #0 align 2 personality ptr @__gxx_personality_v0 {
  %2 = alloca ptr, align 8
  %3 = alloca %class.QString, align 8
  %4 = alloca ptr, align 8
  %5 = alloca i32, align 4
  store ptr %0, ptr %2, align 8
  %6 = load ptr, ptr %2, align 8
  %7 = getelementptr inbounds nuw %class.LayoutPreferencesFrame, ptr %6, i32 0, i32 2
  %8 = load ptr, ptr %7, align 8
  %9 = call i32 @prefs_get_uint_value(ptr noundef %8, i32 noundef 1)
  switch i32 %9, label %40 [
    i32 1, label %10
    i32 2, label %15
    i32 3, label %20
    i32 4, label %25
    i32 5, label %30
    i32 6, label %35
  ]

10:                                               ; preds = %1
  %11 = getelementptr inbounds nuw %class.LayoutPreferencesFrame, ptr %6, i32 0, i32 1
  %12 = load ptr, ptr %11, align 8
  %13 = getelementptr inbounds nuw %class.Ui_LayoutPreferencesFrame, ptr %12, i32 0, i32 2
  %14 = load ptr, ptr %13, align 8
  call void @_ZN15QAbstractButton10setCheckedEb(ptr noundef align 8 dereferenceable_or_null(40) %14, i1 noundef zeroext true)
  br label %40

15:                                               ; preds = %1
  %16 = getelementptr inbounds nuw %class.LayoutPreferencesFrame, ptr %6, i32 0, i32 1
  %17 = load ptr, ptr %16, align 8
  %18 = getelementptr inbounds nuw %class.Ui_LayoutPreferencesFrame, ptr %17, i32 0, i32 3
  %19 = load ptr, ptr %18, align 8
  call void @_ZN15QAbstractButton10setCheckedEb(ptr noundef align 8 dereferenceable_or_null(40) %19, i1 noundef zeroext true)
  br label %40

20:                                               ; preds = %1
  %21 = getelementptr inbounds nuw %class.LayoutPreferencesFrame, ptr %6, i32 0, i32 1
  %22 = load ptr, ptr %21, align 8
  %23 = getelementptr inbounds nuw %class.Ui_LayoutPreferencesFrame, ptr %22, i32 0, i32 4
  %24 = load ptr, ptr %23, align 8
  call void @_ZN15QAbstractButton10setCheckedEb(ptr noundef align 8 dereferenceable_or_null(40) %24, i1 noundef zeroext true)
  br label %40

25:                                               ; preds = %1
  %26 = getelementptr inbounds nuw %class.LayoutPreferencesFrame, ptr %6, i32 0, i32 1
  %27 = load ptr, ptr %26, align 8
  %28 = getelementptr inbounds nuw %class.Ui_LayoutPreferencesFrame, ptr %27, i32 0, i32 5
  %29 = load ptr, ptr %28, align 8
  call void @_ZN15QAbstractButton10setCheckedEb(ptr noundef align 8 dereferenceable_or_null(40) %29, i1 noundef zeroext true)
  br label %40

30:                                               ; preds = %1
  %31 = getelementptr inbounds nuw %class.LayoutPreferencesFrame, ptr %6, i32 0, i32 1
  %32 = load ptr, ptr %31, align 8
  %33 = getelementptr inbounds nuw %class.Ui_LayoutPreferencesFrame, ptr %32, i32 0, i32 6
  %34 = load ptr, ptr %33, align 8
  call void @_ZN15QAbstractButton10setCheckedEb(ptr noundef align 8 dereferenceable_or_null(40) %34, i1 noundef zeroext true)
  br label %40

35:                                               ; preds = %1
  %36 = getelementptr inbounds nuw %class.LayoutPreferencesFrame, ptr %6, i32 0, i32 1
  %37 = load ptr, ptr %36, align 8
  %38 = getelementptr inbounds nuw %class.Ui_LayoutPreferencesFrame, ptr %37, i32 0, i32 7
  %39 = load ptr, ptr %38, align 8
  call void @_ZN15QAbstractButton10setCheckedEb(ptr noundef align 8 dereferenceable_or_null(40) %39, i1 noundef zeroext true)
  br label %40

40:                                               ; preds = %1, %35, %30, %25, %20, %15, %10
  %41 = getelementptr inbounds nuw %class.LayoutPreferencesFrame, ptr %6, i32 0, i32 3
  %42 = load ptr, ptr %41, align 8
  %43 = call i32 @prefs_get_enum_value(ptr noundef %42, i32 noundef 1)
  switch i32 %43, label %69 [
    i32 1, label %44
    i32 2, label %49
    i32 3, label %54
    i32 4, label %59
    i32 0, label %64
  ]

44:                                               ; preds = %40
  %45 = getelementptr inbounds nuw %class.LayoutPreferencesFrame, ptr %6, i32 0, i32 1
  %46 = load ptr, ptr %45, align 8
  %47 = getelementptr inbounds nuw %class.Ui_LayoutPreferencesFrame, ptr %46, i32 0, i32 11
  %48 = load ptr, ptr %47, align 8
  call void @_ZN15QAbstractButton10setCheckedEb(ptr noundef align 8 dereferenceable_or_null(40) %48, i1 noundef zeroext true)
  br label %69

49:                                               ; preds = %40
  %50 = getelementptr inbounds nuw %class.LayoutPreferencesFrame, ptr %6, i32 0, i32 1
  %51 = load ptr, ptr %50, align 8
  %52 = getelementptr inbounds nuw %class.Ui_LayoutPreferencesFrame, ptr %51, i32 0, i32 12
  %53 = load ptr, ptr %52, align 8
  call void @_ZN15QAbstractButton10setCheckedEb(ptr noundef align 8 dereferenceable_or_null(40) %53, i1 noundef zeroext true)
  br label %69

54:                                               ; preds = %40
  %55 = getelementptr inbounds nuw %class.LayoutPreferencesFrame, ptr %6, i32 0, i32 1
  %56 = load ptr, ptr %55, align 8
  %57 = getelementptr inbounds nuw %class.Ui_LayoutPreferencesFrame, ptr %56, i32 0, i32 13
  %58 = load ptr, ptr %57, align 8
  call void @_ZN15QAbstractButton10setCheckedEb(ptr noundef align 8 dereferenceable_or_null(40) %58, i1 noundef zeroext true)
  br label %69

59:                                               ; preds = %40
  %60 = getelementptr inbounds nuw %class.LayoutPreferencesFrame, ptr %6, i32 0, i32 1
  %61 = load ptr, ptr %60, align 8
  %62 = getelementptr inbounds nuw %class.Ui_LayoutPreferencesFrame, ptr %61, i32 0, i32 14
  %63 = load ptr, ptr %62, align 8
  call void @_ZN15QAbstractButton10setCheckedEb(ptr noundef align 8 dereferenceable_or_null(40) %63, i1 noundef zeroext true)
  br label %69

64:                                               ; preds = %40
  %65 = getelementptr inbounds nuw %class.LayoutPreferencesFrame, ptr %6, i32 0, i32 1
  %66 = load ptr, ptr %65, align 8
  %67 = getelementptr inbounds nuw %class.Ui_LayoutPreferencesFrame, ptr %66, i32 0, i32 15
  %68 = load ptr, ptr %67, align 8
  call void @_ZN15QAbstractButton10setCheckedEb(ptr noundef align 8 dereferenceable_or_null(40) %68, i1 noundef zeroext true)
  br label %69

69:                                               ; preds = %40, %64, %59, %54, %49, %44
  %70 = getelementptr inbounds nuw %class.LayoutPreferencesFrame, ptr %6, i32 0, i32 4
  %71 = load ptr, ptr %70, align 8
  %72 = call i32 @prefs_get_enum_value(ptr noundef %71, i32 noundef 1)
  switch i32 %72, label %98 [
    i32 1, label %73
    i32 2, label %78
    i32 3, label %83
    i32 4, label %88
    i32 0, label %93
  ]

73:                                               ; preds = %69
  %74 = getelementptr inbounds nuw %class.LayoutPreferencesFrame, ptr %6, i32 0, i32 1
  %75 = load ptr, ptr %74, align 8
  %76 = getelementptr inbounds nuw %class.Ui_LayoutPreferencesFrame, ptr %75, i32 0, i32 18
  %77 = load ptr, ptr %76, align 8
  call void @_ZN15QAbstractButton10setCheckedEb(ptr noundef align 8 dereferenceable_or_null(40) %77, i1 noundef zeroext true)
  br label %98

78:                                               ; preds = %69
  %79 = getelementptr inbounds nuw %class.LayoutPreferencesFrame, ptr %6, i32 0, i32 1
  %80 = load ptr, ptr %79, align 8
  %81 = getelementptr inbounds nuw %class.Ui_LayoutPreferencesFrame, ptr %80, i32 0, i32 19
  %82 = load ptr, ptr %81, align 8
  call void @_ZN15QAbstractButton10setCheckedEb(ptr noundef align 8 dereferenceable_or_null(40) %82, i1 noundef zeroext true)
  br label %98

83:                                               ; preds = %69
  %84 = getelementptr inbounds nuw %class.LayoutPreferencesFrame, ptr %6, i32 0, i32 1
  %85 = load ptr, ptr %84, align 8
  %86 = getelementptr inbounds nuw %class.Ui_LayoutPreferencesFrame, ptr %85, i32 0, i32 20
  %87 = load ptr, ptr %86, align 8
  call void @_ZN15QAbstractButton10setCheckedEb(ptr noundef align 8 dereferenceable_or_null(40) %87, i1 noundef zeroext true)
  br label %98

88:                                               ; preds = %69
  %89 = getelementptr inbounds nuw %class.LayoutPreferencesFrame, ptr %6, i32 0, i32 1
  %90 = load ptr, ptr %89, align 8
  %91 = getelementptr inbounds nuw %class.Ui_LayoutPreferencesFrame, ptr %90, i32 0, i32 21
  %92 = load ptr, ptr %91, align 8
  call void @_ZN15QAbstractButton10setCheckedEb(ptr noundef align 8 dereferenceable_or_null(40) %92, i1 noundef zeroext true)
  br label %98

93:                                               ; preds = %69
  %94 = getelementptr inbounds nuw %class.LayoutPreferencesFrame, ptr %6, i32 0, i32 1
  %95 = load ptr, ptr %94, align 8
  %96 = getelementptr inbounds nuw %class.Ui_LayoutPreferencesFrame, ptr %95, i32 0, i32 22
  %97 = load ptr, ptr %96, align 8
  call void @_ZN15QAbstractButton10setCheckedEb(ptr noundef align 8 dereferenceable_or_null(40) %97, i1 noundef zeroext true)
  br label %98

98:                                               ; preds = %69, %93, %88, %83, %78, %73
  %99 = getelementptr inbounds nuw %class.LayoutPreferencesFrame, ptr %6, i32 0, i32 5
  %100 = load ptr, ptr %99, align 8
  %101 = call i32 @prefs_get_enum_value(ptr noundef %100, i32 noundef 1)
  switch i32 %101, label %127 [
    i32 1, label %102
    i32 2, label %107
    i32 3, label %112
    i32 4, label %117
    i32 0, label %122
  ]

102:                                              ; preds = %98
  %103 = getelementptr inbounds nuw %class.LayoutPreferencesFrame, ptr %6, i32 0, i32 1
  %104 = load ptr, ptr %103, align 8
  %105 = getelementptr inbounds nuw %class.Ui_LayoutPreferencesFrame, ptr %104, i32 0, i32 25
  %106 = load ptr, ptr %105, align 8
  call void @_ZN15QAbstractButton10setCheckedEb(ptr noundef align 8 dereferenceable_or_null(40) %106, i1 noundef zeroext true)
  br label %127

107:                                              ; preds = %98
  %108 = getelementptr inbounds nuw %class.LayoutPreferencesFrame, ptr %6, i32 0, i32 1
  %109 = load ptr, ptr %108, align 8
  %110 = getelementptr inbounds nuw %class.Ui_LayoutPreferencesFrame, ptr %109, i32 0, i32 26
  %111 = load ptr, ptr %110, align 8
  call void @_ZN15QAbstractButton10setCheckedEb(ptr noundef align 8 dereferenceable_or_null(40) %111, i1 noundef zeroext true)
  br label %127

112:                                              ; preds = %98
  %113 = getelementptr inbounds nuw %class.LayoutPreferencesFrame, ptr %6, i32 0, i32 1
  %114 = load ptr, ptr %113, align 8
  %115 = getelementptr inbounds nuw %class.Ui_LayoutPreferencesFrame, ptr %114, i32 0, i32 27
  %116 = load ptr, ptr %115, align 8
  call void @_ZN15QAbstractButton10setCheckedEb(ptr noundef align 8 dereferenceable_or_null(40) %116, i1 noundef zeroext true)
  br label %127

117:                                              ; preds = %98
  %118 = getelementptr inbounds nuw %class.LayoutPreferencesFrame, ptr %6, i32 0, i32 1
  %119 = load ptr, ptr %118, align 8
  %120 = getelementptr inbounds nuw %class.Ui_LayoutPreferencesFrame, ptr %119, i32 0, i32 28
  %121 = load ptr, ptr %120, align 8
  call void @_ZN15QAbstractButton10setCheckedEb(ptr noundef align 8 dereferenceable_or_null(40) %121, i1 noundef zeroext true)
  br label %127

122:                                              ; preds = %98
  %123 = getelementptr inbounds nuw %class.LayoutPreferencesFrame, ptr %6, i32 0, i32 1
  %124 = load ptr, ptr %123, align 8
  %125 = getelementptr inbounds nuw %class.Ui_LayoutPreferencesFrame, ptr %124, i32 0, i32 29
  %126 = load ptr, ptr %125, align 8
  call void @_ZN15QAbstractButton10setCheckedEb(ptr noundef align 8 dereferenceable_or_null(40) %126, i1 noundef zeroext true)
  br label %127

127:                                              ; preds = %98, %122, %117, %112, %107, %102
  %128 = getelementptr inbounds nuw %class.LayoutPreferencesFrame, ptr %6, i32 0, i32 1
  %129 = load ptr, ptr %128, align 8
  %130 = getelementptr inbounds nuw %class.Ui_LayoutPreferencesFrame, ptr %129, i32 0, i32 37
  %131 = load ptr, ptr %130, align 8
  call void @llvm.lifetime.start.p0(i64 24, ptr %3) #16
  %132 = getelementptr inbounds nuw %class.LayoutPreferencesFrame, ptr %6, i32 0, i32 10
  %133 = load ptr, ptr %132, align 8
  %134 = call i32 @prefs_get_uint_value(ptr noundef %133, i32 noundef 1)
  call void @_ZN7QString6numberEji(ptr dead_on_unwind writable sret(%class.QString) align 8 %3, i32 noundef %134, i32 noundef 10)
  invoke void @_ZN9QLineEdit7setTextERK7QString(ptr noundef align 8 dereferenceable_or_null(40) %131, ptr noundef align 8 dereferenceable(24) %3)
          to label %135 unwind label %136

135:                                              ; preds = %127
  call void @_ZN7QStringD2Ev(ptr noundef align 8 dereferenceable_or_null(24) %3) #16
  call void @llvm.lifetime.end.p0(i64 24, ptr %3) #16
  ret void

136:                                              ; preds = %127
  %137 = landingpad { ptr, i32 }
          cleanup
  %138 = extractvalue { ptr, i32 } %137, 0
  store ptr %138, ptr %4, align 8
  %139 = extractvalue { ptr, i32 } %137, 1
  store i32 %139, ptr %5, align 4
  call void @_ZN7QStringD2Ev(ptr noundef align 8 dereferenceable_or_null(24) %3) #16
  call void @llvm.lifetime.end.p0(i64 24, ptr %3) #16
  br label %140

140:                                              ; preds = %136
  %141 = load ptr, ptr %4, align 8
  %142 = load i32, ptr %5, align 4
  %143 = insertvalue { ptr, i32 } poison, ptr %141, 0
  %144 = insertvalue { ptr, i32 } %143, i32 %142, 1
  resume { ptr, i32 } %144
}