; Function Attrs: mustprogress null_pointer_is_valid sspstrong uwtable
define void @_ZN22LayoutPreferencesFrame13updateWidgetsEv(ptr noundef readonly align 8 captures(none) dereferenceable_or_null(136) %0) local_unnamed_addr #0 align 2 personality ptr @__gxx_personality_v0 {
  %2 = alloca %class.QString, align 8
  %3 = getelementptr inbounds nuw i8, ptr %0, i64 48
  %4 = load ptr, ptr %3, align 8
  %5 = tail call i32 @prefs_get_uint_value(ptr noundef %4, i32 noundef 1)
  %switch.tableidx = add i32 %5, -1
  %6 = icmp ult i32 %switch.tableidx, 6
  br i1 %6, label %switch.lookup, label %14

switch.lookup:                                    ; preds = %1
  %7 = shl nuw nsw i32 %switch.tableidx, 3
  %8 = getelementptr inbounds nuw i8, ptr %0, i64 40
  %9 = load ptr, ptr %8, align 8
  %10 = zext nneg i32 %7 to i64
  %11 = getelementptr inbounds nuw i8, ptr %9, i64 %10
  %12 = getelementptr inbounds nuw i8, ptr %11, i64 16
  %13 = load ptr, ptr %12, align 8
  tail call void @_ZN15QAbstractButton10setCheckedEb(ptr noundef align 8 dereferenceable_or_null(40) %13, i1 noundef zeroext true)
  br label %14

14:                                               ; preds = %1, %switch.lookup
  %15 = getelementptr inbounds nuw i8, ptr %0, i64 56
  %16 = load ptr, ptr %15, align 8
  %17 = tail call i32 @prefs_get_enum_value(ptr noundef %16, i32 noundef 1)
  %18 = icmp ult i32 %17, 5
  br i1 %18, label %switch.lookup21, label %24

switch.lookup21:                                  ; preds = %14
  %19 = zext nneg i32 %17 to i64
  %switch.gep = getelementptr inbounds nuw [5 x i64], ptr @switch.table._ZN22LayoutPreferencesFrame13updateWidgetsEv, i64 0, i64 %19
  %switch.load = load i64, ptr %switch.gep, align 8
  %20 = getelementptr inbounds nuw i8, ptr %0, i64 40
  %21 = load ptr, ptr %20, align 8
  %22 = getelementptr inbounds nuw i8, ptr %21, i64 %switch.load
  %23 = load ptr, ptr %22, align 8
  tail call void @_ZN15QAbstractButton10setCheckedEb(ptr noundef align 8 dereferenceable_or_null(40) %23, i1 noundef zeroext true)
  br label %24

24:                                               ; preds = %14, %switch.lookup21
  %25 = getelementptr inbounds nuw i8, ptr %0, i64 64
  %26 = load ptr, ptr %25, align 8
  %27 = tail call i32 @prefs_get_enum_value(ptr noundef %26, i32 noundef 1)
  %28 = icmp ult i32 %27, 5
  br i1 %28, label %switch.lookup22, label %34

switch.lookup22:                                  ; preds = %24
  %29 = zext nneg i32 %27 to i64
  %switch.gep23 = getelementptr inbounds nuw [5 x i64], ptr @switch.table._ZN22LayoutPreferencesFrame13updateWidgetsEv.1, i64 0, i64 %29
  %switch.load24 = load i64, ptr %switch.gep23, align 8
  %30 = getelementptr inbounds nuw i8, ptr %0, i64 40
  %31 = load ptr, ptr %30, align 8
  %32 = getelementptr inbounds nuw i8, ptr %31, i64 %switch.load24
  %33 = load ptr, ptr %32, align 8
  tail call void @_ZN15QAbstractButton10setCheckedEb(ptr noundef align 8 dereferenceable_or_null(40) %33, i1 noundef zeroext true)
  br label %34

34:                                               ; preds = %24, %switch.lookup22
  %35 = getelementptr inbounds nuw i8, ptr %0, i64 72
  %36 = load ptr, ptr %35, align 8
  %37 = tail call i32 @prefs_get_enum_value(ptr noundef %36, i32 noundef 1)
  %38 = icmp ult i32 %37, 5
  br i1 %38, label %switch.lookup25, label %44

switch.lookup25:                                  ; preds = %34
  %39 = zext nneg i32 %37 to i64
  %switch.gep26 = getelementptr inbounds nuw [5 x i64], ptr @switch.table._ZN22LayoutPreferencesFrame13updateWidgetsEv.2, i64 0, i64 %39
  %switch.load27 = load i64, ptr %switch.gep26, align 8
  %40 = getelementptr inbounds nuw i8, ptr %0, i64 40
  %41 = load ptr, ptr %40, align 8
  %42 = getelementptr inbounds nuw i8, ptr %41, i64 %switch.load27
  %43 = load ptr, ptr %42, align 8
  tail call void @_ZN15QAbstractButton10setCheckedEb(ptr noundef align 8 dereferenceable_or_null(40) %43, i1 noundef zeroext true)
  br label %44

44:                                               ; preds = %34, %switch.lookup25
  %45 = getelementptr inbounds nuw i8, ptr %0, i64 40
  %46 = load ptr, ptr %45, align 8
  %47 = getelementptr inbounds nuw i8, ptr %46, i64 296
  %48 = load ptr, ptr %47, align 8
  call void @llvm.lifetime.start.p0(i64 24, ptr nonnull %2) #10
  %49 = getelementptr inbounds nuw i8, ptr %0, i64 112
  %50 = load ptr, ptr %49, align 8
  %51 = tail call i32 @prefs_get_uint_value(ptr noundef %50, i32 noundef 1)
  call void @_ZN7QString6numberEji(ptr dead_on_unwind nonnull writable sret(%class.QString) align 8 %2, i32 noundef %51, i32 noundef 10)
  invoke void @_ZN9QLineEdit7setTextERK7QString(ptr noundef align 8 dereferenceable_or_null(40) %48, ptr noundef nonnull align 8 dereferenceable(24) %2)
          to label %52 unwind label %57

52:                                               ; preds = %44
  %53 = load ptr, ptr %2, align 8
  %.not.i.i.i = icmp eq ptr %53, null
  br i1 %.not.i.i.i, label %_ZN7QStringD2Ev.exit, label %_ZN17QArrayDataPointerIDsE5derefEv.exit.i.i

_ZN17QArrayDataPointerIDsE5derefEv.exit.i.i:      ; preds = %52
  %54 = atomicrmw sub ptr %53, i32 1 seq_cst, align 4
  %.not.i.i = icmp eq i32 %54, 1
  br i1 %.not.i.i, label %55, label %_ZN7QStringD2Ev.exit

55:                                               ; preds = %_ZN17QArrayDataPointerIDsE5derefEv.exit.i.i
  %56 = load ptr, ptr %2, align 8
  call void @_ZN10QArrayData10deallocateEPS_xx(ptr noundef %56, i64 noundef 2, i64 noundef 8) #10
  br label %_ZN7QStringD2Ev.exit

_ZN7QStringD2Ev.exit:                             ; preds = %52, %_ZN17QArrayDataPointerIDsE5derefEv.exit.i.i, %55
  call void @llvm.lifetime.end.p0(i64 24, ptr nonnull %2) #10
  ret void

57:                                               ; preds = %44
  %58 = landingpad { ptr, i32 }
          cleanup
  %59 = load ptr, ptr %2, align 8
  %.not.i.i.i2 = icmp eq ptr %59, null
  br i1 %.not.i.i.i2, label %_ZN7QStringD2Ev.exit5, label %_ZN17QArrayDataPointerIDsE5derefEv.exit.i.i3

_ZN17QArrayDataPointerIDsE5derefEv.exit.i.i3:     ; preds = %57
  %60 = atomicrmw sub ptr %59, i32 1 seq_cst, align 4
  %.not.i.i4 = icmp eq i32 %60, 1
  br i1 %.not.i.i4, label %61, label %_ZN7QStringD2Ev.exit5

61:                                               ; preds = %_ZN17QArrayDataPointerIDsE5derefEv.exit.i.i3
  %62 = load ptr, ptr %2, align 8
  call void @_ZN10QArrayData10deallocateEPS_xx(ptr noundef %62, i64 noundef 2, i64 noundef 8) #10
  br label %_ZN7QStringD2Ev.exit5

_ZN7QStringD2Ev.exit5:                            ; preds = %57, %_ZN17QArrayDataPointerIDsE5derefEv.exit.i.i3, %61
  call void @llvm.lifetime.end.p0(i64 24, ptr nonnull %2) #10
  resume { ptr, i32 } %58
}